; Function Attrs: nounwind uwtable
define internal i32 @lzma_traverse(ptr noundef %0, ptr noundef readonly captures(none) %1, ptr noundef %2) #0 {
  %4 = tail call ptr @PyModule_GetState(ptr noundef %0) #10
  %5 = load ptr, ptr %4, align 8, !tbaa !3
  %.not = icmp eq ptr %5, null
  br i1 %.not, label %8, label %6

6:                                                ; preds = %3
  %7 = tail call i32 %1(ptr noundef nonnull %5, ptr noundef %2) #10
  %.not42 = icmp eq i32 %7, 0
  br i1 %.not42, label %8, label %24

8:                                                ; preds = %3, %6
  %9 = getelementptr inbounds nuw i8, ptr %4, i64 8
  %10 = load ptr, ptr %9, align 8, !tbaa !10
  %.not43 = icmp eq ptr %10, null
  br i1 %.not43, label %13, label %11

11:                                               ; preds = %8
  %12 = tail call i32 %1(ptr noundef nonnull %10, ptr noundef %2) #10
  %.not44 = icmp eq i32 %12, 0
  br i1 %.not44, label %13, label %24

13:                                               ; preds = %8, %11
  %14 = getelementptr inbounds nuw i8, ptr %4, i64 16
  %15 = load ptr, ptr %14, align 8, !tbaa !11
  %.not45 = icmp eq ptr %15, null
  br i1 %.not45, label %18, label %16

16:                                               ; preds = %13
  %17 = tail call i32 %1(ptr noundef nonnull %15, ptr noundef %2) #10
  %.not46 = icmp eq i32 %17, 0
  br i1 %.not46, label %18, label %24

18:                                               ; preds = %13, %16
  %19 = getelementptr inbounds nuw i8, ptr %4, i64 24
  %20 = load ptr, ptr %19, align 8, !tbaa !12
  %.not47 = icmp eq ptr %20, null
  br i1 %.not47, label %23, label %21

21:                                               ; preds = %18
  %22 = tail call i32 %1(ptr noundef nonnull %20, ptr noundef %2) #10
  %.not48 = icmp eq i32 %22, 0
  br i1 %.not48, label %23, label %24

23:                                               ; preds = %21, %18
  br label %24

24:                                               ; preds = %6, %11, %16, %21, %23
  %.1 = phi i32 [ 0, %23 ], [ %22, %21 ], [ %17, %16 ], [ %12, %11 ], [ %7, %6 ]
  ret i32 %.1
}